; Function Attrs: nounwind uwtable
define void @If_ManNodeShape2_rec(ptr noundef %0, ptr noundef %1, ptr noundef captures(none) %2, ptr noundef %3) local_unnamed_addr #0 {
  %5 = load i32, ptr %2, align 8
  %6 = and i32 %5, 256
  %.not = icmp eq i32 %6, 0
  br i1 %.not, label %7, label %75

7:                                                ; preds = %4
  %8 = or disjoint i32 %5, 256
  store i32 %8, ptr %2, align 8
  %9 = getelementptr i8, ptr %0, i64 328
  %.val = load ptr, ptr %9, align 8, !tbaa !62
  %invariant.gep = getelementptr i8, ptr %.val, i64 4
  %10 = getelementptr i8, ptr %2, i64 80
  %.0.val30 = load i32, ptr %10, align 4, !tbaa !3
  %11 = sext i32 %.0.val30 to i64
  %gep31 = getelementptr i32, ptr %invariant.gep, i64 %11
  %12 = load i32, ptr %gep31, align 4, !tbaa !3
  %.not2832 = icmp eq i32 %12, 1
  br i1 %.not2832, label %._crit_edge, label %.lr.ph

.lr.ph:                                           ; preds = %7, %.lr.ph
  %.02933 = phi ptr [ %14, %.lr.ph ], [ %2, %7 ]
  %13 = getelementptr inbounds nuw i8, ptr %.02933, i64 40
  %14 = load ptr, ptr %13, align 8, !tbaa !13, !nonnull !73, !noundef !73
  %15 = getelementptr i8, ptr %14, i64 80
  %.0.val = load i32, ptr %15, align 4, !tbaa !3
  %16 = sext i32 %.0.val to i64
  %gep = getelementptr i32, ptr %invariant.gep, i64 %16
  %17 = load i32, ptr %gep, align 4, !tbaa !3
  %.not28 = icmp eq i32 %17, 1
  br i1 %.not28, label %._crit_edge, label %.lr.ph

._crit_edge:                                      ; preds = %.lr.ph, %7
  %.029.lcssa = phi ptr [ %2, %7 ], [ %14, %.lr.ph ]
  %18 = getelementptr inbounds nuw i8, ptr %.029.lcssa, i64 24
  %19 = load ptr, ptr %18, align 8, !tbaa !19
  tail call void @If_ManNodeShape2_rec(ptr noundef %0, ptr noundef %1, ptr noundef %19, ptr noundef %3)
  %20 = getelementptr inbounds nuw i8, ptr %.029.lcssa, i64 32
  %21 = load ptr, ptr %20, align 8, !tbaa !20
  tail call void @If_ManNodeShape2_rec(ptr noundef %0, ptr noundef %1, ptr noundef %21, ptr noundef %3)
  %22 = getelementptr inbounds nuw i8, ptr %2, i64 4
  %23 = load i32, ptr %22, align 4, !tbaa !21
  %24 = getelementptr inbounds nuw i8, ptr %3, i64 4
  %25 = load i32, ptr %24, align 4, !tbaa !40
  %26 = load i32, ptr %3, align 8, !tbaa !43
  %27 = icmp eq i32 %25, %26
  br i1 %27, label %28, label %.Vec_IntGrow.exit10_crit_edge.i

.Vec_IntGrow.exit10_crit_edge.i:                  ; preds = %._crit_edge
  %.phi.trans.insert.i = getelementptr inbounds nuw i8, ptr %3, i64 8
  %.pre.i = load ptr, ptr %.phi.trans.insert.i, align 8, !tbaa !44
  br label %Vec_IntPush.exit

28:                                               ; preds = %._crit_edge
  %29 = icmp slt i32 %25, 16
  br i1 %29, label %30, label %38

30:                                               ; preds = %28
  %31 = getelementptr inbounds nuw i8, ptr %3, i64 8
  %32 = load ptr, ptr %31, align 8, !tbaa !44
  %.not9.i.i = icmp eq ptr %32, null
  br i1 %.not9.i.i, label %35, label %33

33:                                               ; preds = %30
  %34 = tail call dereferenceable_or_null(64) ptr @realloc(ptr noundef nonnull %32, i64 noundef 64) #13
  br label %Vec_IntGrow.exit.i

35:                                               ; preds = %30
  %36 = tail call noalias dereferenceable_or_null(64) ptr @malloc(i64 noundef 64) #14
  br label %Vec_IntGrow.exit.i

Vec_IntGrow.exit.i:                               ; preds = %35, %33
  %37 = phi ptr [ %34, %33 ], [ %36, %35 ]
  store ptr %37, ptr %31, align 8, !tbaa !44
  store i32 16, ptr %3, align 8, !tbaa !43
  br label %Vec_IntPush.exit

38:                                               ; preds = %28
  %39 = shl nuw nsw i32 %25, 1
  %40 = getelementptr inbounds nuw i8, ptr %3, i64 8
  %41 = load ptr, ptr %40, align 8, !tbaa !44
  %.not9.i9.i = icmp eq ptr %41, null
  %42 = zext nneg i32 %39 to i64
  %43 = shl nuw nsw i64 %42, 2
  br i1 %.not9.i9.i, label %46, label %44

44:                                               ; preds = %38
  %45 = tail call ptr @realloc(ptr noundef nonnull %41, i64 noundef %43) #13
  br label %48

46:                                               ; preds = %38
  %47 = tail call noalias ptr @malloc(i64 noundef %43) #14
  br label %48

48:                                               ; preds = %46, %44
  %49 = phi ptr [ %45, %44 ], [ %47, %46 ]
  store ptr %49, ptr %40, align 8, !tbaa !44
  store i32 %39, ptr %3, align 8, !tbaa !43
  br label %Vec_IntPush.exit

Vec_IntPush.exit:                                 ; preds = %.Vec_IntGrow.exit10_crit_edge.i, %Vec_IntGrow.exit.i, %48
  %50 = phi ptr [ %.pre.i, %.Vec_IntGrow.exit10_crit_edge.i ], [ %49, %48 ], [ %37, %Vec_IntGrow.exit.i ]
  %51 = load i32, ptr %24, align 4, !tbaa !40
  %52 = add nsw i32 %51, 1
  store i32 %52, ptr %24, align 4, !tbaa !40
  %53 = sext i32 %51 to i64
  %54 = getelementptr inbounds i32, ptr %50, i64 %53
  store i32 %23, ptr %54, align 4, !tbaa !3
  %55 = getelementptr inbounds nuw i8, ptr %.029.lcssa, i64 4
  %56 = load i32, ptr %55, align 4, !tbaa !21
  %57 = load i32, ptr %24, align 4, !tbaa !40
  %58 = load i32, ptr %3, align 8, !tbaa !43
  %59 = icmp eq i32 %57, %58
  br i1 %59, label %60, label %Vec_IntPush.exit27

60:                                               ; preds = %Vec_IntPush.exit
  %61 = icmp slt i32 %57, 16
  br i1 %61, label %Vec_IntGrow.exit.i26, label %64

Vec_IntGrow.exit.i26:                             ; preds = %60
  %62 = getelementptr inbounds nuw i8, ptr %3, i64 8
  %63 = tail call dereferenceable_or_null(64) ptr @realloc(ptr noundef nonnull %50, i64 noundef 64) #13
  store ptr %63, ptr %62, align 8, !tbaa !44
  br label %Vec_IntPush.exit27.sink.split

64:                                               ; preds = %60
  %65 = shl nuw nsw i32 %57, 1
  %66 = getelementptr inbounds nuw i8, ptr %3, i64 8
  %67 = zext nneg i32 %65 to i64
  %68 = shl nuw nsw i64 %67, 2
  %69 = tail call ptr @realloc(ptr noundef nonnull %50, i64 noundef %68) #13
  store ptr %69, ptr %66, align 8, !tbaa !44
  br label %Vec_IntPush.exit27.sink.split

Vec_IntPush.exit27.sink.split:                    ; preds = %64, %Vec_IntGrow.exit.i26
  %.sink = phi i32 [ 16, %Vec_IntGrow.exit.i26 ], [ %65, %64 ]
  %.ph = phi ptr [ %63, %Vec_IntGrow.exit.i26 ], [ %69, %64 ]
  store i32 %.sink, ptr %3, align 8, !tbaa !43
  br label %Vec_IntPush.exit27

Vec_IntPush.exit27:                               ; preds = %Vec_IntPush.exit27.sink.split, %Vec_IntPush.exit
  %70 = phi ptr [ %50, %Vec_IntPush.exit ], [ %.ph, %Vec_IntPush.exit27.sink.split ]
  %71 = load i32, ptr %24, align 4, !tbaa !40
  %72 = add nsw i32 %71, 1
  store i32 %72, ptr %24, align 4, !tbaa !40
  %73 = sext i32 %71 to i64
  %74 = getelementptr inbounds i32, ptr %70, i64 %73
  store i32 %56, ptr %74, align 4, !tbaa !3
  br label %75

75:                                               ; preds = %4, %Vec_IntPush.exit27
  ret void
}